target datalayout = "e-m:e-p270:32:32-p271:32:32-p272:64:64-i64:64-i128:128-f80:128-n8:16:32:64-S128"
target triple = "x86_64-pc-linux-gnu"

%struct.dt_iop_order_iccprofile_info_t = type { i32, [512 x i8], i32, [56 x i8], [4 x [4 x float]], [4 x [4 x float]], i32, [3 x ptr], [3 x ptr], [8 x i8], [3 x [3 x float]], [12 x i8], [3 x [3 x float]], i32, float, [36 x i8], [4 x [4 x float]], [4 x [4 x float]], [3 x [2 x float]], [2 x float], [32 x i8] }

; Function Attrs: inlinehint nounwind uwtable
define internal ptr @dt_alloc_align_float(i64 noundef %0) #2 {
  %2 = alloca i64, align 8
  store i64 %0, ptr %2, align 8, !tbaa !24
  %3 = load i64, ptr %2, align 8, !tbaa !24
  %4 = mul i64 %3, 4
  %5 = call ptr @dt_alloc_aligned(i64 noundef %4)
  call void @llvm.assume(i1 true) [ "align"(ptr %5, i64 64) ]
  ret ptr %5
}

; Function Attrs: nounwind uwtable
define internal void @_mark_as_nonmatrix_profile(ptr noundef %0) #0 {
  %2 = alloca ptr, align 8
  store ptr %0, ptr %2, align 8, !tbaa !6
  br label %3

3:                                                ; preds = %1
  %4 = load ptr, ptr %2, align 8, !tbaa !6
  %5 = getelementptr inbounds nuw %struct.dt_iop_order_iccprofile_info_t, ptr %4, i32 0, i32 4
  %6 = getelementptr inbounds [4 x [4 x float]], ptr %5, i64 0, i64 0
  %7 = getelementptr inbounds [4 x float], ptr %6, i64 0, i64 0
  store float 0x7FF8000000000000, ptr %7, align 64, !tbaa !18
  br label %8

8:                                                ; preds = %3
  br label %9

9:                                                ; preds = %8
  %10 = load ptr, ptr %2, align 8, !tbaa !6
  %11 = getelementptr inbounds nuw %struct.dt_iop_order_iccprofile_info_t, ptr %10, i32 0, i32 16
  %12 = getelementptr inbounds [4 x [4 x float]], ptr %11, i64 0, i64 0
  %13 = getelementptr inbounds [4 x float], ptr %12, i64 0, i64 0
  store float 0x7FF8000000000000, ptr %13, align 64, !tbaa !18
  br label %14

14:                                               ; preds = %9
  br label %15

15:                                               ; preds = %14
  %16 = load ptr, ptr %2, align 8, !tbaa !6
  %17 = getelementptr inbounds nuw %struct.dt_iop_order_iccprofile_info_t, ptr %16, i32 0, i32 5
  %18 = getelementptr inbounds [4 x [4 x float]], ptr %17, i64 0, i64 0
  %19 = getelementptr inbounds [4 x float], ptr %18, i64 0, i64 0
  store float 0x7FF8000000000000, ptr %19, align 64, !tbaa !18
  br label %20

20:                                               ; preds = %15
  br label %21

21:                                               ; preds = %20
  %22 = load ptr, ptr %2, align 8, !tbaa !6
  %23 = getelementptr inbounds nuw %struct.dt_iop_order_iccprofile_info_t, ptr %22, i32 0, i32 17
  %24 = getelementptr inbounds [4 x [4 x float]], ptr %23, i64 0, i64 0
  %25 = getelementptr inbounds [4 x float], ptr %24, i64 0, i64 0
  store float 0x7FF8000000000000, ptr %25, align 64, !tbaa !18
  br label %26

26:                                               ; preds = %21
  ret void
}

; Function Attrs: nounwind uwtable
define void @dt_ioppr_init_profile_info(ptr noundef %0, i32 noundef %1) #0 {
  %3 = alloca ptr, align 8
  %4 = alloca i32, align 4
  %5 = alloca i32, align 4
  store ptr %0, ptr %3, align 8, !tbaa !6
  store i32 %1, ptr %4, align 4, !tbaa !11
  %6 = load ptr, ptr %3, align 8, !tbaa !6
  %7 = getelementptr inbounds nuw %struct.dt_iop_order_iccprofile_info_t, ptr %6, i32 0, i32 0
  store i32 -1, ptr %7, align 64, !tbaa !13
  %8 = load ptr, ptr %3, align 8, !tbaa !6
  %9 = getelementptr inbounds nuw %struct.dt_iop_order_iccprofile_info_t, ptr %8, i32 0, i32 1
  %10 = getelementptr inbounds [512 x i8], ptr %9, i64 0, i64 0
  store i8 0, ptr %10, align 4, !tbaa !16
  %11 = load ptr, ptr %3, align 8, !tbaa !6
  %12 = getelementptr inbounds nuw %struct.dt_iop_order_iccprofile_info_t, ptr %11, i32 0, i32 2
  store i32 0, ptr %12, align 4, !tbaa !17
  %13 = load ptr, ptr %3, align 8, !tbaa !6
  call void @_mark_as_nonmatrix_profile(ptr noundef %13)
  %14 = load ptr, ptr %3, align 8, !tbaa !6
  %15 = getelementptr inbounds nuw %struct.dt_iop_order_iccprofile_info_t, ptr %14, i32 0, i32 10
  %16 = getelementptr inbounds [3 x [3 x float]], ptr %15, i64 0, i64 2
  %17 = getelementptr inbounds [3 x float], ptr %16, i64 0, i64 0
  store float -1.000000e+00, ptr %17, align 8, !tbaa !18
  %18 = load ptr, ptr %3, align 8, !tbaa !6
  %19 = getelementptr inbounds nuw %struct.dt_iop_order_iccprofile_info_t, ptr %18, i32 0, i32 10
  %20 = getelementptr inbounds [3 x [3 x float]], ptr %19, i64 0, i64 1
  %21 = getelementptr inbounds [3 x float], ptr %20, i64 0, i64 0
  store float -1.000000e+00, ptr %21, align 4, !tbaa !18
  %22 = load ptr, ptr %3, align 8, !tbaa !6
  %23 = getelementptr inbounds nuw %struct.dt_iop_order_iccprofile_info_t, ptr %22, i32 0, i32 10
  %24 = getelementptr inbounds [3 x [3 x float]], ptr %23, i64 0, i64 0
  %25 = getelementptr inbounds [3 x float], ptr %24, i64 0, i64 0
  store float -1.000000e+00, ptr %25, align 64, !tbaa !18
  %26 = load ptr, ptr %3, align 8, !tbaa !6
  %27 = getelementptr inbounds nuw %struct.dt_iop_order_iccprofile_info_t, ptr %26, i32 0, i32 12
  %28 = getelementptr inbounds [3 x [3 x float]], ptr %27, i64 0, i64 2
  %29 = getelementptr inbounds [3 x float], ptr %28, i64 0, i64 0
  store float -1.000000e+00, ptr %29, align 8, !tbaa !18
  %30 = load ptr, ptr %3, align 8, !tbaa !6
  %31 = getelementptr inbounds nuw %struct.dt_iop_order_iccprofile_info_t, ptr %30, i32 0, i32 12
  %32 = getelementptr inbounds [3 x [3 x float]], ptr %31, i64 0, i64 1
  %33 = getelementptr inbounds [3 x float], ptr %32, i64 0, i64 0
  store float -1.000000e+00, ptr %33, align 4, !tbaa !18
  %34 = load ptr, ptr %3, align 8, !tbaa !6
  %35 = getelementptr inbounds nuw %struct.dt_iop_order_iccprofile_info_t, ptr %34, i32 0, i32 12
  %36 = getelementptr inbounds [3 x [3 x float]], ptr %35, i64 0, i64 0
  %37 = getelementptr inbounds [3 x float], ptr %36, i64 0, i64 0
  store float -1.000000e+00, ptr %37, align 16, !tbaa !18
  %38 = load ptr, ptr %3, align 8, !tbaa !6
  %39 = getelementptr inbounds nuw %struct.dt_iop_order_iccprofile_info_t, ptr %38, i32 0, i32 13
  store i32 0, ptr %39, align 4, !tbaa !19
  %40 = load ptr, ptr %3, align 8, !tbaa !6
  %41 = getelementptr inbounds nuw %struct.dt_iop_order_iccprofile_info_t, ptr %40, i32 0, i32 14
  store float 0.000000e+00, ptr %41, align 8, !tbaa !20
  %42 = load i32, ptr %4, align 4, !tbaa !11
  %43 = icmp sgt i32 %42, 0
  br i1 %43, label %44, label %46

44:                                               ; preds = %2
  %45 = load i32, ptr %4, align 4, !tbaa !11
  br label %47

46:                                               ; preds = %2
  br label %47

47:                                               ; preds = %46, %44
  %48 = phi i32 [ %45, %44 ], [ 65536, %46 ]
  %49 = load ptr, ptr %3, align 8, !tbaa !6
  %50 = getelementptr inbounds nuw %struct.dt_iop_order_iccprofile_info_t, ptr %49, i32 0, i32 6
  store i32 %48, ptr %50, align 64, !tbaa !21
  call void @llvm.lifetime.start.p0(i64 4, ptr %5) #10
  store i32 0, ptr %5, align 4, !tbaa !11
  br label %51

51:                                               ; preds = %90, %47
  %52 = load i32, ptr %5, align 4, !tbaa !11
  %53 = icmp slt i32 %52, 3
  br i1 %53, label %55, label %54

54:                                               ; preds = %51
  call void @llvm.lifetime.end.p0(i64 4, ptr %5) #10
  br label %93

55:                                               ; preds = %51
  %56 = load ptr, ptr %3, align 8, !tbaa !6
  %57 = getelementptr inbounds nuw %struct.dt_iop_order_iccprofile_info_t, ptr %56, i32 0, i32 6
  %58 = load i32, ptr %57, align 64, !tbaa !21
  %59 = sext i32 %58 to i64
  %60 = call ptr @dt_alloc_align_float(i64 noundef %59)
  %61 = load ptr, ptr %3, align 8, !tbaa !6
  %62 = getelementptr inbounds nuw %struct.dt_iop_order_iccprofile_info_t, ptr %61, i32 0, i32 7
  %63 = load i32, ptr %5, align 4, !tbaa !11
  %64 = sext i32 %63 to i64
  %65 = getelementptr inbounds [3 x ptr], ptr %62, i64 0, i64 %64
  store ptr %60, ptr %65, align 8, !tbaa !22
  %66 = load ptr, ptr %3, align 8, !tbaa !6
  %67 = getelementptr inbounds nuw %struct.dt_iop_order_iccprofile_info_t, ptr %66, i32 0, i32 7
  %68 = load i32, ptr %5, align 4, !tbaa !11
  %69 = sext i32 %68 to i64
  %70 = getelementptr inbounds [3 x ptr], ptr %67, i64 0, i64 %69
  %71 = load ptr, ptr %70, align 8, !tbaa !22
  %72 = getelementptr inbounds float, ptr %71, i64 0
  store float -1.000000e+00, ptr %72, align 4, !tbaa !18
  %73 = load ptr, ptr %3, align 8, !tbaa !6
  %74 = getelementptr inbounds nuw %struct.dt_iop_order_iccprofile_info_t, ptr %73, i32 0, i32 6
  %75 = load i32, ptr %74, align 64, !tbaa !21
  %76 = sext i32 %75 to i64
  %77 = call ptr @dt_alloc_align_float(i64 noundef %76)
  %78 = load ptr, ptr %3, align 8, !tbaa !6
  %79 = getelementptr inbounds nuw %struct.dt_iop_order_iccprofile_info_t, ptr %78, i32 0, i32 8
  %80 = load i32, ptr %5, align 4, !tbaa !11
  %81 = sext i32 %80 to i64
  %82 = getelementptr inbounds [3 x ptr], ptr %79, i64 0, i64 %81
  store ptr %77, ptr %82, align 8, !tbaa !22
  %83 = load ptr, ptr %3, align 8, !tbaa !6
  %84 = getelementptr inbounds nuw %struct.dt_iop_order_iccprofile_info_t, ptr %83, i32 0, i32 8
  %85 = load i32, ptr %5, align 4, !tbaa !11
  %86 = sext i32 %85 to i64
  %87 = getelementptr inbounds [3 x ptr], ptr %84, i64 0, i64 %86
  %88 = load ptr, ptr %87, align 8, !tbaa !22
  %89 = getelementptr inbounds float, ptr %88, i64 0
  store float -1.000000e+00, ptr %89, align 4, !tbaa !18
  br label %90

90:                                               ; preds = %55
  %91 = load i32, ptr %5, align 4, !tbaa !11
  %92 = add nsw i32 %91, 1
  store i32 %92, ptr %5, align 4, !tbaa !11
  br label %51

93:                                               ; preds = %54
  ret void
}