; Function Attrs: nounwind uwtable
define void @dt_ioppr_init_profile_info(ptr noundef captures(none) initializes((0, 5), (516, 520), (576, 580), (640, 644), (704, 708), (768, 772), (780, 784), (792, 796), (816, 820), (828, 832), (840, 844), (852, 860), (896, 900), (960, 964)) %0, i32 noundef %1) local_unnamed_addr #0 {
  store i32 -1, ptr %0, align 64, !tbaa !6
  %3 = getelementptr inbounds nuw i8, ptr %0, i64 4
  store i8 0, ptr %3, align 4, !tbaa !12
  %4 = getelementptr inbounds nuw i8, ptr %0, i64 516
  store i32 0, ptr %4, align 4, !tbaa !13
  %5 = getelementptr inbounds nuw i8, ptr %0, i64 576
  store float 0x7FF8000000000000, ptr %5, align 64, !tbaa !14
  %6 = getelementptr inbounds nuw i8, ptr %0, i64 896
  store float 0x7FF8000000000000, ptr %6, align 64, !tbaa !14
  %7 = getelementptr inbounds nuw i8, ptr %0, i64 640
  store float 0x7FF8000000000000, ptr %7, align 64, !tbaa !14
  %8 = getelementptr inbounds nuw i8, ptr %0, i64 960
  store float 0x7FF8000000000000, ptr %8, align 64, !tbaa !14
  %9 = getelementptr inbounds nuw i8, ptr %0, i64 768
  %10 = getelementptr inbounds nuw i8, ptr %0, i64 792
  store float -1.000000e+00, ptr %10, align 8, !tbaa !14
  %11 = getelementptr inbounds nuw i8, ptr %0, i64 780
  store float -1.000000e+00, ptr %11, align 4, !tbaa !14
  store float -1.000000e+00, ptr %9, align 64, !tbaa !14
  %12 = getelementptr inbounds nuw i8, ptr %0, i64 816
  %13 = getelementptr inbounds nuw i8, ptr %0, i64 840
  store float -1.000000e+00, ptr %13, align 8, !tbaa !14
  %14 = getelementptr inbounds nuw i8, ptr %0, i64 828
  store float -1.000000e+00, ptr %14, align 4, !tbaa !14
  store float -1.000000e+00, ptr %12, align 16, !tbaa !14
  %15 = getelementptr inbounds nuw i8, ptr %0, i64 852
  store i32 0, ptr %15, align 4, !tbaa !15
  %16 = getelementptr inbounds nuw i8, ptr %0, i64 856
  store float 0.000000e+00, ptr %16, align 8, !tbaa !16
  %17 = icmp sgt i32 %1, 0
  %18 = select i1 %17, i32 %1, i32 65536
  %19 = getelementptr inbounds nuw i8, ptr %0, i64 704
  store i32 %18, ptr %19, align 64, !tbaa !17
  %20 = getelementptr inbounds nuw i8, ptr %0, i64 712
  %21 = getelementptr inbounds nuw i8, ptr %0, i64 736
  br label %23

22:                                               ; preds = %23
  ret void

23:                                               ; preds = %2, %23
  %indvars.iv = phi i64 [ 0, %2 ], [ %indvars.iv.next, %23 ]
  %24 = load i32, ptr %19, align 64, !tbaa !17
  %25 = sext i32 %24 to i64
  %26 = shl nsw i64 %25, 2
  %27 = tail call ptr @dt_alloc_aligned(i64 noundef %26) #17
  call void @llvm.assume(i1 true) [ "align"(ptr %27, i64 64) ]
  %28 = getelementptr inbounds nuw [3 x ptr], ptr %20, i64 0, i64 %indvars.iv
  store ptr %27, ptr %28, align 8, !tbaa !18
  store float -1.000000e+00, ptr %27, align 64, !tbaa !14
  %29 = load i32, ptr %19, align 64, !tbaa !17
  %30 = sext i32 %29 to i64
  %31 = shl nsw i64 %30, 2
  %32 = tail call ptr @dt_alloc_aligned(i64 noundef %31) #17
  call void @llvm.assume(i1 true) [ "align"(ptr %32, i64 64) ]
  %33 = getelementptr inbounds nuw [3 x ptr], ptr %21, i64 0, i64 %indvars.iv
  store ptr %32, ptr %33, align 8, !tbaa !18
  store float -1.000000e+00, ptr %32, align 64, !tbaa !14
  %indvars.iv.next = add nuw nsw i64 %indvars.iv, 1
  %exitcond.not = icmp eq i64 %indvars.iv.next, 3
  br i1 %exitcond.not, label %22, label %23
}